target datalayout = "e-m:e-p270:32:32-p271:32:32-p272:64:64-i64:64-i128:128-f80:128-n8:16:32:64-S128"
target triple = "x86_64-pc-linux-gnu"

%"class.std::vector.7" = type { %"struct.std::_Vector_base.8" }
%"struct.std::_Vector_base.8" = type { %"struct.std::_Vector_base<unsigned int, std::allocator<unsigned int>>::_Vector_impl" }
%"struct.std::_Vector_base<unsigned int, std::allocator<unsigned int>>::_Vector_impl" = type { %"struct.std::_Vector_base<unsigned int, std::allocator<unsigned int>>::_Vector_impl_data" }
%"struct.std::_Vector_base<unsigned int, std::allocator<unsigned int>>::_Vector_impl_data" = type { ptr, ptr, ptr }
%"class.cv::line_descriptor::BinaryDescriptorMatcher::SparseHashtable" = type { %"class.std::vector.43", i32, i64 }
%"class.std::vector.43" = type { %"struct.std::_Vector_base.44" }
%"struct.std::_Vector_base.44" = type { %"struct.std::_Vector_base<cv::line_descriptor::BinaryDescriptorMatcher::BucketGroup, std::allocator<cv::line_descriptor::BinaryDescriptorMatcher::BucketGroup>>::_Vector_impl" }
%"struct.std::_Vector_base<cv::line_descriptor::BinaryDescriptorMatcher::BucketGroup, std::allocator<cv::line_descriptor::BinaryDescriptorMatcher::BucketGroup>>::_Vector_impl" = type { %"struct.std::_Vector_base<cv::line_descriptor::BinaryDescriptorMatcher::BucketGroup, std::allocator<cv::line_descriptor::BinaryDescriptorMatcher::BucketGroup>>::_Vector_impl_data" }
%"struct.std::_Vector_base<cv::line_descriptor::BinaryDescriptorMatcher::BucketGroup, std::allocator<cv::line_descriptor::BinaryDescriptorMatcher::BucketGroup>>::_Vector_impl_data" = type { ptr, ptr, ptr }
%"class.cv::line_descriptor::BinaryDescriptorMatcher::BucketGroup" = type { i32, %"class.std::vector.7" }

@_ZN2cv15line_descriptor23BinaryDescriptorMatcher11BucketGroupD1Ev = unnamed_addr alias void (ptr), ptr @_ZN2cv15line_descriptor23BinaryDescriptorMatcher11BucketGroupD2Ev

; Function Attrs: mustprogress nounwind uwtable
define linkonce_odr hidden void @_ZNSt15__new_allocatorIN2cv15line_descriptor23BinaryDescriptorMatcher11BucketGroupEE10deallocateEPS3_m(ptr noundef nonnull align 1 dereferenceable(1) %0, ptr noundef %1, i64 noundef %2) #5 comdat align 2 {
  %4 = alloca ptr, align 8
  %5 = alloca ptr, align 8
  %6 = alloca i64, align 8
  store ptr %0, ptr %4, align 8, !tbaa !206
  store ptr %1, ptr %5, align 8, !tbaa !203
  store i64 %2, ptr %6, align 8, !tbaa !49
  %7 = load ptr, ptr %5, align 8, !tbaa !203
  call void @_ZdlPv(ptr noundef %7) #23
  ret void
}

; Function Attrs: inlinehint mustprogress nounwind uwtable
define linkonce_odr void @_ZSt8_DestroyIN2cv15line_descriptor23BinaryDescriptorMatcher11BucketGroupEEvPT_(ptr noundef %0) #6 comdat {
  %2 = alloca ptr, align 8
  store ptr %0, ptr %2, align 8, !tbaa !203
  %3 = load ptr, ptr %2, align 8, !tbaa !203
  call void @_ZN2cv15line_descriptor23BinaryDescriptorMatcher11BucketGroupD1Ev(ptr noundef nonnull align 8 dereferenceable(32) %3) #3
  ret void
}

; Function Attrs: mustprogress uwtable
define linkonce_odr hidden void @_ZNSt16allocator_traitsISaIN2cv15line_descriptor23BinaryDescriptorMatcher11BucketGroupEEE10deallocateERS4_PS3_m(ptr noundef nonnull align 1 dereferenceable(1) %0, ptr noundef %1, i64 noundef %2) #4 comdat align 2 {
  %4 = alloca ptr, align 8
  %5 = alloca ptr, align 8
  %6 = alloca i64, align 8
  store ptr %0, ptr %4, align 8, !tbaa !201
  store ptr %1, ptr %5, align 8, !tbaa !203
  store i64 %2, ptr %6, align 8, !tbaa !49
  %7 = load ptr, ptr %4, align 8, !tbaa !201
  %8 = load ptr, ptr %5, align 8, !tbaa !203
  %9 = load i64, ptr %6, align 8, !tbaa !49
  call void @_ZNSt15__new_allocatorIN2cv15line_descriptor23BinaryDescriptorMatcher11BucketGroupEE10deallocateEPS3_m(ptr noundef nonnull align 1 dereferenceable(1) %7, ptr noundef %8, i64 noundef %9)
  ret void
}

; Function Attrs: mustprogress uwtable
define linkonce_odr hidden void @_ZNSt12_Destroy_auxILb0EE9__destroyIPN2cv15line_descriptor23BinaryDescriptorMatcher11BucketGroupEEEvT_S7_(ptr noundef %0, ptr noundef %1) #4 comdat align 2 {
  %3 = alloca ptr, align 8
  %4 = alloca ptr, align 8
  store ptr %0, ptr %3, align 8, !tbaa !203
  store ptr %1, ptr %4, align 8, !tbaa !203
  br label %5

5:                                                ; preds = %11, %2
  %6 = load ptr, ptr %3, align 8, !tbaa !203
  %7 = load ptr, ptr %4, align 8, !tbaa !203
  %8 = icmp ne ptr %6, %7
  br i1 %8, label %9, label %14

9:                                                ; preds = %5
  %10 = load ptr, ptr %3, align 8, !tbaa !203
  call void @_ZSt8_DestroyIN2cv15line_descriptor23BinaryDescriptorMatcher11BucketGroupEEvPT_(ptr noundef %10)
  br label %11

11:                                               ; preds = %9
  %12 = load ptr, ptr %3, align 8, !tbaa !203
  %13 = getelementptr inbounds nuw %"class.cv::line_descriptor::BinaryDescriptorMatcher::BucketGroup", ptr %12, i32 1
  store ptr %13, ptr %3, align 8, !tbaa !203
  br label %5, !llvm.loop !513

14:                                               ; preds = %5
  ret void
}

; Function Attrs: mustprogress nounwind uwtable
define linkonce_odr hidden void @_ZNSt15__new_allocatorIN2cv15line_descriptor23BinaryDescriptorMatcher11BucketGroupEED2Ev(ptr noundef nonnull align 1 dereferenceable(1) %0) unnamed_addr #5 comdat align 2 {
  %2 = alloca ptr, align 8
  store ptr %0, ptr %2, align 8, !tbaa !206
  ret void
}

; Function Attrs: mustprogress uwtable
define linkonce_odr hidden void @_ZNSt12_Vector_baseIN2cv15line_descriptor23BinaryDescriptorMatcher11BucketGroupESaIS3_EE13_M_deallocateEPS3_m(ptr noundef nonnull align 8 dereferenceable(24) %0, ptr noundef %1, i64 noundef %2) #4 comdat align 2 {
  %4 = alloca ptr, align 8
  %5 = alloca ptr, align 8
  %6 = alloca i64, align 8
  store ptr %0, ptr %4, align 8, !tbaa !309
  store ptr %1, ptr %5, align 8, !tbaa !203
  store i64 %2, ptr %6, align 8, !tbaa !49
  %7 = load ptr, ptr %4, align 8
  %8 = load ptr, ptr %5, align 8, !tbaa !203
  %9 = icmp ne ptr %8, null
  br i1 %9, label %10, label %14

10:                                               ; preds = %3
  %11 = getelementptr inbounds nuw %"struct.std::_Vector_base.44", ptr %7, i32 0, i32 0
  %12 = load ptr, ptr %5, align 8, !tbaa !203
  %13 = load i64, ptr %6, align 8, !tbaa !49
  call void @_ZNSt16allocator_traitsISaIN2cv15line_descriptor23BinaryDescriptorMatcher11BucketGroupEEE10deallocateERS4_PS3_m(ptr noundef nonnull align 1 dereferenceable(1) %11, ptr noundef %12, i64 noundef %13)
  br label %14

14:                                               ; preds = %10, %3
  ret void
}

; Function Attrs: inlinehint mustprogress uwtable
define linkonce_odr void @_ZSt8_DestroyIPN2cv15line_descriptor23BinaryDescriptorMatcher11BucketGroupEEvT_S5_(ptr noundef %0, ptr noundef %1) #10 comdat {
  %3 = alloca ptr, align 8
  %4 = alloca ptr, align 8
  store ptr %0, ptr %3, align 8, !tbaa !203
  store ptr %1, ptr %4, align 8, !tbaa !203
  %5 = load ptr, ptr %3, align 8, !tbaa !203
  %6 = load ptr, ptr %4, align 8, !tbaa !203
  call void @_ZNSt12_Destroy_auxILb0EE9__destroyIPN2cv15line_descriptor23BinaryDescriptorMatcher11BucketGroupEEEvT_S7_(ptr noundef %5, ptr noundef %6)
  ret void
}

; Function Attrs: noinline noreturn nounwind uwtable
define linkonce_odr hidden void @__clang_call_terminate(ptr noundef %0) #14 comdat {
  %2 = call ptr @__cxa_begin_catch(ptr %0) #3
  call void @_ZSt9terminatev() #25
  unreachable
}

; Function Attrs: mustprogress nounwind uwtable
define linkonce_odr hidden void @_ZNSt12_Vector_baseIN2cv15line_descriptor23BinaryDescriptorMatcher11BucketGroupESaIS3_EED2Ev(ptr noundef nonnull align 8 dereferenceable(24) %0) unnamed_addr #5 comdat align 2 personality ptr @__gxx_personality_v0 {
  %2 = alloca ptr, align 8
  store ptr %0, ptr %2, align 8, !tbaa !309
  %3 = load ptr, ptr %2, align 8
  %4 = getelementptr inbounds nuw %"struct.std::_Vector_base.44", ptr %3, i32 0, i32 0
  %5 = getelementptr inbounds nuw %"struct.std::_Vector_base<cv::line_descriptor::BinaryDescriptorMatcher::BucketGroup, std::allocator<cv::line_descriptor::BinaryDescriptorMatcher::BucketGroup>>::_Vector_impl_data", ptr %4, i32 0, i32 0
  %6 = load ptr, ptr %5, align 8, !tbaa !204
  %7 = getelementptr inbounds nuw %"struct.std::_Vector_base.44", ptr %3, i32 0, i32 0
  %8 = getelementptr inbounds nuw %"struct.std::_Vector_base<cv::line_descriptor::BinaryDescriptorMatcher::BucketGroup, std::allocator<cv::line_descriptor::BinaryDescriptorMatcher::BucketGroup>>::_Vector_impl_data", ptr %7, i32 0, i32 2
  %9 = load ptr, ptr %8, align 8, !tbaa !507
  %10 = getelementptr inbounds nuw %"struct.std::_Vector_base.44", ptr %3, i32 0, i32 0
  %11 = getelementptr inbounds nuw %"struct.std::_Vector_base<cv::line_descriptor::BinaryDescriptorMatcher::BucketGroup, std::allocator<cv::line_descriptor::BinaryDescriptorMatcher::BucketGroup>>::_Vector_impl_data", ptr %10, i32 0, i32 0
  %12 = load ptr, ptr %11, align 8, !tbaa !204
  %13 = ptrtoint ptr %9 to i64
  %14 = ptrtoint ptr %12 to i64
  %15 = sub i64 %13, %14
  %16 = sdiv exact i64 %15, 32
  invoke void @_ZNSt12_Vector_baseIN2cv15line_descriptor23BinaryDescriptorMatcher11BucketGroupESaIS3_EE13_M_deallocateEPS3_m(ptr noundef nonnull align 8 dereferenceable(24) %3, ptr noundef %6, i64 noundef %16)
          to label %17 unwind label %19

17:                                               ; preds = %1
  %18 = getelementptr inbounds nuw %"struct.std::_Vector_base.44", ptr %3, i32 0, i32 0
  call void @_ZNSt15__new_allocatorIN2cv15line_descriptor23BinaryDescriptorMatcher11BucketGroupEED2Ev(ptr noundef nonnull align 8 dereferenceable(24) %18) #3
  ret void

19:                                               ; preds = %1
  %20 = landingpad { ptr, i32 }
          catch ptr null
  %21 = extractvalue { ptr, i32 } %20, 0
  call void @__clang_call_terminate(ptr %21) #25
  unreachable
}

; Function Attrs: inlinehint mustprogress uwtable
define linkonce_odr void @_ZSt8_DestroyIPN2cv15line_descriptor23BinaryDescriptorMatcher11BucketGroupES3_EvT_S5_RSaIT0_E(ptr noundef %0, ptr noundef %1, ptr noundef nonnull align 1 dereferenceable(1) %2) #10 comdat {
  %4 = alloca ptr, align 8
  %5 = alloca ptr, align 8
  %6 = alloca ptr, align 8
  store ptr %0, ptr %4, align 8, !tbaa !203
  store ptr %1, ptr %5, align 8, !tbaa !203
  store ptr %2, ptr %6, align 8, !tbaa !201
  %7 = load ptr, ptr %4, align 8, !tbaa !203
  %8 = load ptr, ptr %5, align 8, !tbaa !203
  call void @_ZSt8_DestroyIPN2cv15line_descriptor23BinaryDescriptorMatcher11BucketGroupEEvT_S5_(ptr noundef %7, ptr noundef %8)
  ret void
}

; Function Attrs: mustprogress nounwind uwtable
define linkonce_odr hidden noundef nonnull align 1 dereferenceable(1) ptr @_ZNSt12_Vector_baseIN2cv15line_descriptor23BinaryDescriptorMatcher11BucketGroupESaIS3_EE19_M_get_Tp_allocatorEv(ptr noundef nonnull align 8 dereferenceable(24) %0) #5 comdat align 2 {
  %2 = alloca ptr, align 8
  store ptr %0, ptr %2, align 8, !tbaa !309
  %3 = load ptr, ptr %2, align 8
  %4 = getelementptr inbounds nuw %"struct.std::_Vector_base.44", ptr %3, i32 0, i32 0
  ret ptr %4
}

; Function Attrs: mustprogress nounwind uwtable
define linkonce_odr hidden void @_ZNSt6vectorIN2cv15line_descriptor23BinaryDescriptorMatcher11BucketGroupESaIS3_EED2Ev(ptr noundef nonnull align 8 dereferenceable(24) %0) unnamed_addr #5 comdat align 2 personality ptr @__gxx_personality_v0 {
  %2 = alloca ptr, align 8
  store ptr %0, ptr %2, align 8, !tbaa !199
  %3 = load ptr, ptr %2, align 8
  %4 = getelementptr inbounds nuw %"struct.std::_Vector_base.44", ptr %3, i32 0, i32 0
  %5 = getelementptr inbounds nuw %"struct.std::_Vector_base<cv::line_descriptor::BinaryDescriptorMatcher::BucketGroup, std::allocator<cv::line_descriptor::BinaryDescriptorMatcher::BucketGroup>>::_Vector_impl_data", ptr %4, i32 0, i32 0
  %6 = load ptr, ptr %5, align 8, !tbaa !204
  %7 = getelementptr inbounds nuw %"struct.std::_Vector_base.44", ptr %3, i32 0, i32 0
  %8 = getelementptr inbounds nuw %"struct.std::_Vector_base<cv::line_descriptor::BinaryDescriptorMatcher::BucketGroup, std::allocator<cv::line_descriptor::BinaryDescriptorMatcher::BucketGroup>>::_Vector_impl_data", ptr %7, i32 0, i32 1
  %9 = load ptr, ptr %8, align 8, !tbaa !205
  %10 = call noundef nonnull align 1 dereferenceable(1) ptr @_ZNSt12_Vector_baseIN2cv15line_descriptor23BinaryDescriptorMatcher11BucketGroupESaIS3_EE19_M_get_Tp_allocatorEv(ptr noundef nonnull align 8 dereferenceable(24) %3) #3
  invoke void @_ZSt8_DestroyIPN2cv15line_descriptor23BinaryDescriptorMatcher11BucketGroupES3_EvT_S5_RSaIT0_E(ptr noundef %6, ptr noundef %9, ptr noundef nonnull align 1 dereferenceable(1) %10)
          to label %11 unwind label %12

11:                                               ; preds = %1
  call void @_ZNSt12_Vector_baseIN2cv15line_descriptor23BinaryDescriptorMatcher11BucketGroupESaIS3_EED2Ev(ptr noundef nonnull align 8 dereferenceable(24) %3) #3
  ret void

12:                                               ; preds = %1
  %13 = landingpad { ptr, i32 }
          catch ptr null
  %14 = extractvalue { ptr, i32 } %13, 0
  call void @__clang_call_terminate(ptr %14) #25
  unreachable
}

; Function Attrs: mustprogress nounwind uwtable
define void @_ZN2cv15line_descriptor23BinaryDescriptorMatcher15SparseHashtableD2Ev(ptr noundef nonnull align 8 dereferenceable(40) %0) unnamed_addr #5 align 2 {
  %2 = alloca ptr, align 8
  store ptr %0, ptr %2, align 8, !tbaa !179
  %3 = load ptr, ptr %2, align 8
  %4 = getelementptr inbounds nuw %"class.cv::line_descriptor::BinaryDescriptorMatcher::SparseHashtable", ptr %3, i32 0, i32 0
  call void @_ZNSt6vectorIN2cv15line_descriptor23BinaryDescriptorMatcher11BucketGroupESaIS3_EED2Ev(ptr noundef nonnull align 8 dereferenceable(24) %4) #3
  ret void
}