; Function Attrs: mustprogress nounwind uwtable
define void @_ZN2cv15line_descriptor23BinaryDescriptorMatcher15SparseHashtableD2Ev(ptr noundef nonnull readonly align 8 captures(none) dereferenceable(40) %0) unnamed_addr #7 align 2 personality ptr @__gxx_personality_v0 {
  %2 = load ptr, ptr %0, align 8, !tbaa !92
  %3 = getelementptr inbounds nuw i8, ptr %0, i64 8
  %4 = load ptr, ptr %3, align 8, !tbaa !238
  %.not4.i.i.i.i = icmp eq ptr %2, %4
  br i1 %.not4.i.i.i.i, label %_ZSt8_DestroyIPN2cv15line_descriptor23BinaryDescriptorMatcher11BucketGroupES3_EvT_S5_RSaIT0_E.exit.i, label %.lr.ph.i.i.i.i

.lr.ph.i.i.i.i:                                   ; preds = %1, %.lr.ph.i.i.i.i
  %.05.i.i.i.i = phi ptr [ %5, %.lr.ph.i.i.i.i ], [ %2, %1 ]
  tail call void @_ZN2cv15line_descriptor23BinaryDescriptorMatcher11BucketGroupD1Ev(ptr noundef nonnull align 8 dereferenceable(32) %.05.i.i.i.i) #26
  %5 = getelementptr inbounds nuw i8, ptr %.05.i.i.i.i, i64 32
  %.not.i.i.i.i = icmp eq ptr %5, %4
  br i1 %.not.i.i.i.i, label %_ZSt8_DestroyIPN2cv15line_descriptor23BinaryDescriptorMatcher11BucketGroupES3_EvT_S5_RSaIT0_E.exitthread-pre-split.i, label %.lr.ph.i.i.i.i, !llvm.loop !240

_ZSt8_DestroyIPN2cv15line_descriptor23BinaryDescriptorMatcher11BucketGroupES3_EvT_S5_RSaIT0_E.exitthread-pre-split.i: ; preds = %.lr.ph.i.i.i.i
  %.pr.i = load ptr, ptr %0, align 8, !tbaa !92
  br label %_ZSt8_DestroyIPN2cv15line_descriptor23BinaryDescriptorMatcher11BucketGroupES3_EvT_S5_RSaIT0_E.exit.i

_ZSt8_DestroyIPN2cv15line_descriptor23BinaryDescriptorMatcher11BucketGroupES3_EvT_S5_RSaIT0_E.exit.i: ; preds = %_ZSt8_DestroyIPN2cv15line_descriptor23BinaryDescriptorMatcher11BucketGroupES3_EvT_S5_RSaIT0_E.exitthread-pre-split.i, %1
  %6 = phi ptr [ %.pr.i, %_ZSt8_DestroyIPN2cv15line_descriptor23BinaryDescriptorMatcher11BucketGroupES3_EvT_S5_RSaIT0_E.exitthread-pre-split.i ], [ %2, %1 ]
  %.not.i.i.i = icmp eq ptr %6, null
  br i1 %.not.i.i.i, label %_ZNSt6vectorIN2cv15line_descriptor23BinaryDescriptorMatcher11BucketGroupESaIS3_EED2Ev.exit, label %7

7:                                                ; preds = %_ZSt8_DestroyIPN2cv15line_descriptor23BinaryDescriptorMatcher11BucketGroupES3_EvT_S5_RSaIT0_E.exit.i
  tail call void @_ZdlPv(ptr noundef nonnull %6) #28
  br label %_ZNSt6vectorIN2cv15line_descriptor23BinaryDescriptorMatcher11BucketGroupESaIS3_EED2Ev.exit

_ZNSt6vectorIN2cv15line_descriptor23BinaryDescriptorMatcher11BucketGroupESaIS3_EED2Ev.exit: ; preds = %_ZSt8_DestroyIPN2cv15line_descriptor23BinaryDescriptorMatcher11BucketGroupES3_EvT_S5_RSaIT0_E.exit.i, %7
  ret void
}